target datalayout = "e-m:e-p270:32:32-p271:32:32-p272:64:64-i64:64-i128:128-f80:128-n8:16:32:64-S128"
target triple = "x86_64-pc-linux-gnu"

%"struct.cv::UMatData" = type { ptr, ptr, i32, i32, ptr, ptr, i64, i32, ptr, ptr, i32, i32, ptr, %"class.std::shared_ptr" }
%"class.std::shared_ptr" = type { %"class.std::__shared_ptr" }
%"class.std::__shared_ptr" = type { ptr, %"class.std::__shared_count" }
%"class.std::__shared_count" = type { ptr }
%"class.cv::Mat" = type { i32, i32, i32, i32, ptr, ptr, ptr, ptr, ptr, ptr, %"struct.cv::MatSize", %"struct.cv::MatStep" }
%"struct.cv::MatSize" = type { ptr }
%"struct.cv::MatStep" = type { ptr, [2 x i64] }

; Function Attrs: inlinehint mustprogress nounwind uwtable
define linkonce_odr hidden noundef nonnull align 4 dereferenceable(4) ptr @_ZN2cv7MatSizeixEi(ptr noundef nonnull align 8 dereferenceable(8) %0, i32 noundef %1) #6 comdat align 2 {
  %3 = alloca ptr, align 8
  %4 = alloca i32, align 4
  store ptr %0, ptr %3, align 8, !tbaa !65
  store i32 %1, ptr %4, align 4, !tbaa !26
  %5 = load ptr, ptr %3, align 8
  %6 = getelementptr inbounds nuw %"struct.cv::MatSize", ptr %5, i32 0, i32 0
  %7 = load ptr, ptr %6, align 8, !tbaa !67
  %8 = load i32, ptr %4, align 4, !tbaa !26
  %9 = sext i32 %8 to i64
  %10 = getelementptr inbounds i32, ptr %7, i64 %9
  ret ptr %10
}

; Function Attrs: inlinehint mustprogress nounwind uwtable
define linkonce_odr hidden noundef nonnull align 4 dereferenceable(4) ptr @_ZNK2cv7MatSizeixEi(ptr noundef nonnull align 8 dereferenceable(8) %0, i32 noundef %1) #6 comdat align 2 {
  %3 = alloca ptr, align 8
  %4 = alloca i32, align 4
  store ptr %0, ptr %3, align 8, !tbaa !65
  store i32 %1, ptr %4, align 4, !tbaa !26
  %5 = load ptr, ptr %3, align 8
  %6 = getelementptr inbounds nuw %"struct.cv::MatSize", ptr %5, i32 0, i32 0
  %7 = load ptr, ptr %6, align 8, !tbaa !67
  %8 = load i32, ptr %4, align 4, !tbaa !26
  %9 = sext i32 %8 to i64
  %10 = getelementptr inbounds i32, ptr %7, i64 %9
  ret ptr %10
}

; Function Attrs: mustprogress uwtable
define void @_ZN2cv3Mat8copySizeERKS0_(ptr noundef nonnull align 8 dereferenceable(96) %0, ptr noundef nonnull align 8 dereferenceable(96) %1) #1 align 2 {
  %3 = alloca ptr, align 8
  %4 = alloca ptr, align 8
  %5 = alloca i32, align 4
  store ptr %0, ptr %3, align 8, !tbaa !34
  store ptr %1, ptr %4, align 8, !tbaa !34
  %6 = load ptr, ptr %3, align 8
  %7 = load ptr, ptr %4, align 8, !tbaa !34
  %8 = getelementptr inbounds nuw %"class.cv::Mat", ptr %7, i32 0, i32 1
  %9 = load i32, ptr %8, align 4, !tbaa !72
  call void @_ZN2cv7setSizeERNS_3MatEiPKiPKmb(ptr noundef nonnull align 8 dereferenceable(96) %6, i32 noundef %9, ptr noundef null, ptr noundef null, i1 noundef zeroext false)
  call void @llvm.lifetime.start.p0(i64 4, ptr %5) #7
  store i32 0, ptr %5, align 4, !tbaa !26
  br label %10

10:                                               ; preds = %33, %2
  %11 = load i32, ptr %5, align 4, !tbaa !26
  %12 = getelementptr inbounds nuw %"class.cv::Mat", ptr %6, i32 0, i32 1
  %13 = load i32, ptr %12, align 4, !tbaa !72
  %14 = icmp slt i32 %11, %13
  br i1 %14, label %16, label %15

15:                                               ; preds = %10
  call void @llvm.lifetime.end.p0(i64 4, ptr %5) #7
  br label %36

16:                                               ; preds = %10
  %17 = load ptr, ptr %4, align 8, !tbaa !34
  %18 = getelementptr inbounds nuw %"class.cv::Mat", ptr %17, i32 0, i32 10
  %19 = load i32, ptr %5, align 4, !tbaa !26
  %20 = call noundef nonnull align 4 dereferenceable(4) ptr @_ZNK2cv7MatSizeixEi(ptr noundef nonnull align 8 dereferenceable(8) %18, i32 noundef %19)
  %21 = load i32, ptr %20, align 4, !tbaa !26
  %22 = getelementptr inbounds nuw %"class.cv::Mat", ptr %6, i32 0, i32 10
  %23 = load i32, ptr %5, align 4, !tbaa !26
  %24 = call noundef nonnull align 4 dereferenceable(4) ptr @_ZN2cv7MatSizeixEi(ptr noundef nonnull align 8 dereferenceable(8) %22, i32 noundef %23)
  store i32 %21, ptr %24, align 4, !tbaa !26
  %25 = load ptr, ptr %4, align 8, !tbaa !34
  %26 = getelementptr inbounds nuw %"class.cv::Mat", ptr %25, i32 0, i32 11
  %27 = load i32, ptr %5, align 4, !tbaa !26
  %28 = call noundef nonnull align 8 dereferenceable(8) ptr @_ZNK2cv7MatStepixEi(ptr noundef nonnull align 8 dereferenceable(24) %26, i32 noundef %27) #7
  %29 = load i64, ptr %28, align 8, !tbaa !31
  %30 = getelementptr inbounds nuw %"class.cv::Mat", ptr %6, i32 0, i32 11
  %31 = load i32, ptr %5, align 4, !tbaa !26
  %32 = call noundef nonnull align 8 dereferenceable(8) ptr @_ZN2cv7MatStepixEi(ptr noundef nonnull align 8 dereferenceable(24) %30, i32 noundef %31) #7
  store i64 %29, ptr %32, align 8, !tbaa !31
  br label %33

33:                                               ; preds = %16
  %34 = load i32, ptr %5, align 4, !tbaa !26
  %35 = add nsw i32 %34, 1
  store i32 %35, ptr %5, align 4, !tbaa !26
  br label %10, !llvm.loop !104

36:                                               ; preds = %15
  ret void
}

; Function Attrs: inlinehint mustprogress nounwind uwtable
define linkonce_odr hidden noundef nonnull align 8 dereferenceable(8) ptr @_ZN2cv7MatStepixEi(ptr noundef nonnull align 8 dereferenceable(24) %0, i32 noundef %1) #6 comdat align 2 {
  %3 = alloca ptr, align 8
  %4 = alloca i32, align 4
  store ptr %0, ptr %3, align 8, !tbaa !83
  store i32 %1, ptr %4, align 4, !tbaa !26
  %5 = load ptr, ptr %3, align 8
  %6 = getelementptr inbounds nuw %"struct.cv::MatStep", ptr %5, i32 0, i32 0
  %7 = load ptr, ptr %6, align 8, !tbaa !85
  %8 = load i32, ptr %4, align 4, !tbaa !26
  %9 = sext i32 %8 to i64
  %10 = getelementptr inbounds i64, ptr %7, i64 %9
  ret ptr %10
}

; Function Attrs: inlinehint mustprogress nounwind uwtable
define linkonce_odr hidden noundef nonnull align 8 dereferenceable(8) ptr @_ZNK2cv7MatStepixEi(ptr noundef nonnull align 8 dereferenceable(24) %0, i32 noundef %1) #6 comdat align 2 {
  %3 = alloca ptr, align 8
  %4 = alloca i32, align 4
  store ptr %0, ptr %3, align 8, !tbaa !83
  store i32 %1, ptr %4, align 4, !tbaa !26
  %5 = load ptr, ptr %3, align 8
  %6 = getelementptr inbounds nuw %"struct.cv::MatStep", ptr %5, i32 0, i32 0
  %7 = load ptr, ptr %6, align 8, !tbaa !85
  %8 = load i32, ptr %4, align 4, !tbaa !26
  %9 = sext i32 %8 to i64
  %10 = getelementptr inbounds i64, ptr %7, i64 %9
  ret ptr %10
}

; Function Attrs: inlinehint mustprogress nounwind uwtable
define linkonce_odr hidden void @_ZN2cv7MatStepC2Em(ptr noundef nonnull align 8 dereferenceable(24) %0, i64 noundef %1) unnamed_addr #6 comdat align 2 {
  %3 = alloca ptr, align 8
  %4 = alloca i64, align 8
  store ptr %0, ptr %3, align 8, !tbaa !83
  store i64 %1, ptr %4, align 8, !tbaa !31
  %5 = load ptr, ptr %3, align 8
  %6 = getelementptr inbounds nuw %"struct.cv::MatStep", ptr %5, i32 0, i32 1
  %7 = getelementptr inbounds [2 x i64], ptr %6, i64 0, i64 0
  %8 = getelementptr inbounds nuw %"struct.cv::MatStep", ptr %5, i32 0, i32 0
  store ptr %7, ptr %8, align 8, !tbaa !85
  %9 = load i64, ptr %4, align 8, !tbaa !31
  %10 = getelementptr inbounds nuw %"struct.cv::MatStep", ptr %5, i32 0, i32 0
  %11 = load ptr, ptr %10, align 8, !tbaa !85
  %12 = getelementptr inbounds i64, ptr %11, i64 0
  store i64 %9, ptr %12, align 8, !tbaa !31
  %13 = getelementptr inbounds nuw %"struct.cv::MatStep", ptr %5, i32 0, i32 0
  %14 = load ptr, ptr %13, align 8, !tbaa !85
  %15 = getelementptr inbounds i64, ptr %14, i64 1
  store i64 0, ptr %15, align 8, !tbaa !31
  ret void
}

; Function Attrs: inlinehint mustprogress nounwind uwtable
define linkonce_odr hidden void @_ZN2cv7MatSizeC2EPi(ptr noundef nonnull align 8 dereferenceable(8) %0, ptr noundef %1) unnamed_addr #6 comdat align 2 {
  %3 = alloca ptr, align 8
  %4 = alloca ptr, align 8
  store ptr %0, ptr %3, align 8, !tbaa !65
  store ptr %1, ptr %4, align 8, !tbaa !71
  %5 = load ptr, ptr %3, align 8
  %6 = getelementptr inbounds nuw %"struct.cv::MatSize", ptr %5, i32 0, i32 0
  %7 = load ptr, ptr %4, align 8, !tbaa !71
  store ptr %7, ptr %6, align 8, !tbaa !67
  ret void
}

; Function Attrs: mustprogress uwtable
define void @_ZN2cv3MatC2ERKS0_(ptr noundef nonnull align 8 dereferenceable(96) %0, ptr noundef nonnull align 8 dereferenceable(96) %1) unnamed_addr #1 align 2 {
  %3 = alloca ptr, align 8
  %4 = alloca ptr, align 8
  %5 = alloca i32, align 4
  %6 = alloca i32, align 4
  store ptr %0, ptr %3, align 8, !tbaa !34
  store ptr %1, ptr %4, align 8, !tbaa !34
  %7 = load ptr, ptr %3, align 8
  %8 = getelementptr inbounds nuw %"class.cv::Mat", ptr %7, i32 0, i32 0
  %9 = load ptr, ptr %4, align 8, !tbaa !34
  %10 = getelementptr inbounds nuw %"class.cv::Mat", ptr %9, i32 0, i32 0
  %11 = load i32, ptr %10, align 8, !tbaa !79
  store i32 %11, ptr %8, align 8, !tbaa !79
  %12 = getelementptr inbounds nuw %"class.cv::Mat", ptr %7, i32 0, i32 1
  %13 = load ptr, ptr %4, align 8, !tbaa !34
  %14 = getelementptr inbounds nuw %"class.cv::Mat", ptr %13, i32 0, i32 1
  %15 = load i32, ptr %14, align 4, !tbaa !72
  store i32 %15, ptr %12, align 4, !tbaa !72
  %16 = getelementptr inbounds nuw %"class.cv::Mat", ptr %7, i32 0, i32 2
  %17 = load ptr, ptr %4, align 8, !tbaa !34
  %18 = getelementptr inbounds nuw %"class.cv::Mat", ptr %17, i32 0, i32 2
  %19 = load i32, ptr %18, align 8, !tbaa !78
  store i32 %19, ptr %16, align 8, !tbaa !78
  %20 = getelementptr inbounds nuw %"class.cv::Mat", ptr %7, i32 0, i32 3
  %21 = load ptr, ptr %4, align 8, !tbaa !34
  %22 = getelementptr inbounds nuw %"class.cv::Mat", ptr %21, i32 0, i32 3
  %23 = load i32, ptr %22, align 4, !tbaa !77
  store i32 %23, ptr %20, align 4, !tbaa !77
  %24 = getelementptr inbounds nuw %"class.cv::Mat", ptr %7, i32 0, i32 4
  %25 = load ptr, ptr %4, align 8, !tbaa !34
  %26 = getelementptr inbounds nuw %"class.cv::Mat", ptr %25, i32 0, i32 4
  %27 = load ptr, ptr %26, align 8, !tbaa !89
  store ptr %27, ptr %24, align 8, !tbaa !89
  %28 = getelementptr inbounds nuw %"class.cv::Mat", ptr %7, i32 0, i32 5
  %29 = load ptr, ptr %4, align 8, !tbaa !34
  %30 = getelementptr inbounds nuw %"class.cv::Mat", ptr %29, i32 0, i32 5
  %31 = load ptr, ptr %30, align 8, !tbaa !90
  store ptr %31, ptr %28, align 8, !tbaa !90
  %32 = getelementptr inbounds nuw %"class.cv::Mat", ptr %7, i32 0, i32 6
  %33 = load ptr, ptr %4, align 8, !tbaa !34
  %34 = getelementptr inbounds nuw %"class.cv::Mat", ptr %33, i32 0, i32 6
  %35 = load ptr, ptr %34, align 8, !tbaa !92
  store ptr %35, ptr %32, align 8, !tbaa !92
  %36 = getelementptr inbounds nuw %"class.cv::Mat", ptr %7, i32 0, i32 7
  %37 = load ptr, ptr %4, align 8, !tbaa !34
  %38 = getelementptr inbounds nuw %"class.cv::Mat", ptr %37, i32 0, i32 7
  %39 = load ptr, ptr %38, align 8, !tbaa !91
  store ptr %39, ptr %36, align 8, !tbaa !91
  %40 = getelementptr inbounds nuw %"class.cv::Mat", ptr %7, i32 0, i32 8
  %41 = load ptr, ptr %4, align 8, !tbaa !34
  %42 = getelementptr inbounds nuw %"class.cv::Mat", ptr %41, i32 0, i32 8
  %43 = load ptr, ptr %42, align 8, !tbaa !94
  store ptr %43, ptr %40, align 8, !tbaa !94
  %44 = getelementptr inbounds nuw %"class.cv::Mat", ptr %7, i32 0, i32 9
  %45 = load ptr, ptr %4, align 8, !tbaa !34
  %46 = getelementptr inbounds nuw %"class.cv::Mat", ptr %45, i32 0, i32 9
  %47 = load ptr, ptr %46, align 8, !tbaa !88
  store ptr %47, ptr %44, align 8, !tbaa !88
  %48 = getelementptr inbounds nuw %"class.cv::Mat", ptr %7, i32 0, i32 10
  %49 = getelementptr inbounds nuw %"class.cv::Mat", ptr %7, i32 0, i32 2
  call void @_ZN2cv7MatSizeC2EPi(ptr noundef nonnull align 8 dereferenceable(8) %48, ptr noundef %49) #7
  %50 = getelementptr inbounds nuw %"class.cv::Mat", ptr %7, i32 0, i32 11
  call void @_ZN2cv7MatStepC2Em(ptr noundef nonnull align 8 dereferenceable(24) %50, i64 noundef 0) #7
  %51 = getelementptr inbounds nuw %"class.cv::Mat", ptr %7, i32 0, i32 9
  %52 = load ptr, ptr %51, align 8, !tbaa !88
  %53 = icmp ne ptr %52, null
  br i1 %53, label %54, label %60

54:                                               ; preds = %2
  %55 = getelementptr inbounds nuw %"class.cv::Mat", ptr %7, i32 0, i32 9
  %56 = load ptr, ptr %55, align 8, !tbaa !88
  %57 = getelementptr inbounds nuw %"struct.cv::UMatData", ptr %56, i32 0, i32 3
  store i32 1, ptr %5, align 4, !tbaa !26
  %58 = load i32, ptr %5, align 4
  %59 = atomicrmw add ptr %57, i32 %58 acq_rel, align 4
  store i32 %59, ptr %6, align 4
  br label %60

60:                                               ; preds = %54, %2
  %61 = load ptr, ptr %4, align 8, !tbaa !34
  %62 = getelementptr inbounds nuw %"class.cv::Mat", ptr %61, i32 0, i32 1
  %63 = load i32, ptr %62, align 4, !tbaa !72
  %64 = icmp sle i32 %63, 2
  br i1 %64, label %65, label %78

65:                                               ; preds = %60
  %66 = load ptr, ptr %4, align 8, !tbaa !34
  %67 = getelementptr inbounds nuw %"class.cv::Mat", ptr %66, i32 0, i32 11
  %68 = call noundef nonnull align 8 dereferenceable(8) ptr @_ZNK2cv7MatStepixEi(ptr noundef nonnull align 8 dereferenceable(24) %67, i32 noundef 0) #7
  %69 = load i64, ptr %68, align 8, !tbaa !31
  %70 = getelementptr inbounds nuw %"class.cv::Mat", ptr %7, i32 0, i32 11
  %71 = call noundef nonnull align 8 dereferenceable(8) ptr @_ZN2cv7MatStepixEi(ptr noundef nonnull align 8 dereferenceable(24) %70, i32 noundef 0) #7
  store i64 %69, ptr %71, align 8, !tbaa !31
  %72 = load ptr, ptr %4, align 8, !tbaa !34
  %73 = getelementptr inbounds nuw %"class.cv::Mat", ptr %72, i32 0, i32 11
  %74 = call noundef nonnull align 8 dereferenceable(8) ptr @_ZNK2cv7MatStepixEi(ptr noundef nonnull align 8 dereferenceable(24) %73, i32 noundef 1) #7
  %75 = load i64, ptr %74, align 8, !tbaa !31
  %76 = getelementptr inbounds nuw %"class.cv::Mat", ptr %7, i32 0, i32 11
  %77 = call noundef nonnull align 8 dereferenceable(8) ptr @_ZN2cv7MatStepixEi(ptr noundef nonnull align 8 dereferenceable(24) %76, i32 noundef 1) #7
  store i64 %75, ptr %77, align 8, !tbaa !31
  br label %81

78:                                               ; preds = %60
  %79 = getelementptr inbounds nuw %"class.cv::Mat", ptr %7, i32 0, i32 1
  store i32 0, ptr %79, align 4, !tbaa !72
  %80 = load ptr, ptr %4, align 8, !tbaa !34
  call void @_ZN2cv3Mat8copySizeERKS0_(ptr noundef nonnull align 8 dereferenceable(96) %7, ptr noundef nonnull align 8 dereferenceable(96) %80)
  br label %81

81:                                               ; preds = %78, %65
  ret void
}