; Function Attrs: mustprogress uwtable
define void @_ZN2cv3MatC2ERKS0_(ptr noundef nonnull align 8 dereferenceable(96) initializes((0, 64)) %0, ptr noundef nonnull readonly align 8 captures(none) dereferenceable(96) %1) unnamed_addr #1 align 2 {
  %3 = load i32, ptr %1, align 8, !tbaa !61
  store i32 %3, ptr %0, align 8, !tbaa !61
  %4 = getelementptr inbounds nuw i8, ptr %0, i64 4
  %5 = getelementptr inbounds nuw i8, ptr %1, i64 4
  %6 = load i32, ptr %5, align 4, !tbaa !53
  store i32 %6, ptr %4, align 4, !tbaa !53
  %7 = getelementptr inbounds nuw i8, ptr %0, i64 8
  %8 = getelementptr inbounds nuw i8, ptr %1, i64 8
  %9 = load i32, ptr %8, align 8, !tbaa !60
  store i32 %9, ptr %7, align 8, !tbaa !60
  %10 = getelementptr inbounds nuw i8, ptr %0, i64 12
  %11 = getelementptr inbounds nuw i8, ptr %1, i64 12
  %12 = load i32, ptr %11, align 4, !tbaa !59
  store i32 %12, ptr %10, align 4, !tbaa !59
  %13 = getelementptr inbounds nuw i8, ptr %0, i64 16
  %14 = getelementptr inbounds nuw i8, ptr %1, i64 16
  %15 = load ptr, ptr %14, align 8, !tbaa !67
  store ptr %15, ptr %13, align 8, !tbaa !67
  %16 = getelementptr inbounds nuw i8, ptr %0, i64 24
  %17 = getelementptr inbounds nuw i8, ptr %1, i64 24
  %18 = load ptr, ptr %17, align 8, !tbaa !68
  store ptr %18, ptr %16, align 8, !tbaa !68
  %19 = getelementptr inbounds nuw i8, ptr %0, i64 32
  %20 = getelementptr inbounds nuw i8, ptr %1, i64 32
  %21 = load ptr, ptr %20, align 8, !tbaa !70
  store ptr %21, ptr %19, align 8, !tbaa !70
  %22 = getelementptr inbounds nuw i8, ptr %0, i64 40
  %23 = getelementptr inbounds nuw i8, ptr %1, i64 40
  %24 = load ptr, ptr %23, align 8, !tbaa !69
  store ptr %24, ptr %22, align 8, !tbaa !69
  %25 = getelementptr inbounds nuw i8, ptr %0, i64 48
  %26 = getelementptr inbounds nuw i8, ptr %1, i64 48
  %27 = load ptr, ptr %26, align 8, !tbaa !74
  store ptr %27, ptr %25, align 8, !tbaa !74
  %28 = getelementptr inbounds nuw i8, ptr %0, i64 56
  %29 = getelementptr inbounds nuw i8, ptr %1, i64 56
  %30 = load ptr, ptr %29, align 8, !tbaa !66
  store ptr %30, ptr %28, align 8, !tbaa !66
  %31 = getelementptr inbounds nuw i8, ptr %0, i64 64
  store ptr %7, ptr %31, align 8, !tbaa !49
  %32 = getelementptr inbounds nuw i8, ptr %0, i64 72
  %33 = getelementptr inbounds nuw i8, ptr %0, i64 80
  store ptr %33, ptr %32, align 8, !tbaa !63
  %.not = icmp eq ptr %30, null
  tail call void @llvm.memset.p0.i64(ptr noundef nonnull align 8 dereferenceable(16) %33, i8 0, i64 16, i1 false)
  br i1 %.not, label %37, label %34

34:                                               ; preds = %2
  %35 = getelementptr inbounds nuw i8, ptr %30, i64 20
  %36 = atomicrmw add ptr %35, i32 1 acq_rel, align 4
  %.pre = load i32, ptr %5, align 4, !tbaa !53
  br label %37

37:                                               ; preds = %34, %2
  %38 = phi i32 [ %.pre, %34 ], [ %6, %2 ]
  %39 = icmp slt i32 %38, 3
  br i1 %39, label %40, label %48

40:                                               ; preds = %37
  %41 = getelementptr inbounds nuw i8, ptr %1, i64 72
  %42 = load ptr, ptr %41, align 8, !tbaa !63
  %43 = load i64, ptr %42, align 8, !tbaa !22
  %44 = load ptr, ptr %32, align 8, !tbaa !63
  store i64 %43, ptr %44, align 8, !tbaa !22
  %45 = getelementptr inbounds nuw i8, ptr %42, i64 8
  %46 = load i64, ptr %45, align 8, !tbaa !22
  %47 = getelementptr inbounds nuw i8, ptr %44, i64 8
  store i64 %46, ptr %47, align 8, !tbaa !22
  br label %_ZN2cv3Mat8copySizeERKS0_.exit

48:                                               ; preds = %37
  store i32 0, ptr %4, align 4, !tbaa !53
  %49 = load i32, ptr %5, align 4, !tbaa !53
  tail call void @_ZN2cv7setSizeERNS_3MatEiPKiPKmb(ptr noundef nonnull align 8 dereferenceable(96) %0, i32 noundef %49, ptr noundef null, ptr noundef null, i1 noundef zeroext false)
  %50 = load i32, ptr %4, align 4, !tbaa !53
  %51 = icmp sgt i32 %50, 0
  br i1 %51, label %.lr.ph.i, label %_ZN2cv3Mat8copySizeERKS0_.exit

.lr.ph.i:                                         ; preds = %48
  %52 = getelementptr inbounds nuw i8, ptr %1, i64 64
  %53 = load ptr, ptr %52, align 8, !tbaa !49
  %54 = load ptr, ptr %31, align 8, !tbaa !49
  %55 = getelementptr inbounds nuw i8, ptr %1, i64 72
  %56 = load ptr, ptr %55, align 8, !tbaa !63
  %57 = load ptr, ptr %32, align 8, !tbaa !63
  br label %58

58:                                               ; preds = %58, %.lr.ph.i
  %indvars.iv.i = phi i64 [ 0, %.lr.ph.i ], [ %indvars.iv.next.i, %58 ]
  %59 = getelementptr inbounds nuw i32, ptr %53, i64 %indvars.iv.i
  %60 = load i32, ptr %59, align 4, !tbaa !23
  %61 = getelementptr inbounds nuw i32, ptr %54, i64 %indvars.iv.i
  store i32 %60, ptr %61, align 4, !tbaa !23
  %62 = getelementptr inbounds nuw i64, ptr %56, i64 %indvars.iv.i
  %63 = load i64, ptr %62, align 8, !tbaa !22
  %64 = getelementptr inbounds nuw i64, ptr %57, i64 %indvars.iv.i
  store i64 %63, ptr %64, align 8, !tbaa !22
  %indvars.iv.next.i = add nuw nsw i64 %indvars.iv.i, 1
  %65 = load i32, ptr %4, align 4, !tbaa !53
  %66 = sext i32 %65 to i64
  %67 = icmp slt i64 %indvars.iv.next.i, %66
  br i1 %67, label %58, label %_ZN2cv3Mat8copySizeERKS0_.exit, !llvm.loop !78

_ZN2cv3Mat8copySizeERKS0_.exit:                   ; preds = %58, %48, %40
  ret void
}